Certificate:
    Data:
        Version: 3 (0x2)
        Serial Number:
            8a:5e:c0:d1:c9:00:86:50
        Signature Algorithm: sha1WithRSAEncryption
        Issuer: C=NZ, ST=Wellington, O=BalanceIT, CN=localhost
        Validity
            Not Before: Dec 27 23:02:15 2011 GMT
            Not After : Dec 26 23:02:15 2012 GMT
        Subject: C=NZ, ST=Wellington, L=Wellington, O=BalanceIT, CN=localhost
        Subject Public Key Info:
            Public Key Algorithm: rsaEncryption
                Public-Key: (1024 bit)
                Modulus:
                    00:af:c8:6f:f8:e1:8d:ef:3e:78:36:d4:58:8b:ef:
                    f4:a0:73:fa:f0:eb:b5:42:23:a2:88:92:95:16:33:
                    bb:53:f2:56:33:7f:42:56:79:5f:03:55:4c:b1:e5:
                    75:bf:cf:d1:a9:e8:77:53:e6:59:d4:e4:09:1e:5c:
                    e5:2a:eb:d7:33:ca:c0:ea:f3:c8:ec:3c:23:b2:af:
                    71:5a:7b:02:94:58:c4:d6:69:64:6a:71:1d:c0:f5:
                    c8:ee:86:26:8a:46:81:bc:76:61:5c:4f:90:41:2b:
                    47:a8:fc:d5:69:64:a9:e5:d5:8c:29:67:c2:5b:7f:
                    d5:12:a0:fc:f6:de:f5:a4:af
                Exponent: 65537 (0x10001)
        X509v3 extensions:
            X509v3 Basic Constraints: 
                CA:FALSE
            Netscape Comment: 
                OpenSSL Generated Certificate
            X509v3 Subject Key Identifier: 
                23:6E:BD:3D:E1:A2:47:DA:65:D3:E7:68:88:71:71:9F:74:54:9A:C7
            X509v3 Authority Key Identifier: 
                keyid:28:50:8A:94:CD:96:6E:17:2B:50:CF:E4:7A:88:14:7D:3C:FC:F1:03

    Signature Algorithm: sha1WithRSAEncryption
        1e:24:6f:62:a0:a6:60:67:26:56:de:9d:c3:1f:06:64:aa:af:
        40:d1:b8:fa:d0:0e:67:18:5e:35:f3:87:2f:e3:30:87:98:ed:
        83:ed:81:a7:66:e0:b7:fd:8e:d5:3d:d9:3e:d9:09:32:ec:b4:
        cc:b5:33:45:a6:d2:1b:53:ae:c6:f1:1a:92:e7:d5:a1:c8:5d:
        c2:c4:7e:4a:97:03:14:3f:78:8d:19:e3:17:8c:34:16:97:5c:
        7f:43:d8:c6:ad:e6:f0:f8:01:68:cc:2b:44:e2:e9:28:f4:2f:
        17:cc:39:a4:66:02:70:62:0f:a8:b8:da:11:ff:6a:3b:78:8e:
        02:5b
-----BEGIN CERTIFICATE-----
MIICojCCAgugAwIBAgIJAIpewNHJAIZQMA0GCSqGSIb3DQEBBQUAMEoxCzAJBgNV
BAYTAk5aMRMwEQYDVQQIDApXZWxsaW5ndG9uMRIwEAYDVQQKDAlCYWxhbmNlSVQx
EjAQBgNVBAMMCWxvY2FsaG9zdDAeFw0xMTEyMjcyMzAyMTVaFw0xMjEyMjYyMzAy
MTVaMF8xCzAJBgNVBAYTAk5aMRMwEQYDVQQIEwpXZWxsaW5ndG9uMRMwEQYDVQQH
EwpXZWxsaW5ndG9uMRIwEAYDVQQKEwlCYWxhbmNlSVQxEjAQBgNVBAMTCWxvY2Fs
aG9zdDCBnzANBgkqhkiG9w0BAQEFAAOBjQAwgYkCgYEAr8hv+OGN7z54NtRYi+/0
oHP68Ou1QiOiiJKVFjO7U/JWM39CVnlfA1VMseV1v8/Rqeh3U+ZZ1OQJHlzlKuvX
M8rA6vPI7Dwjsq9xWnsClFjE1mlkanEdwPXI7oYmikaBvHZhXE+QQStHqPzVaWSp
5dWMKWfCW3/VEqD89t71pK8CAwEAAaN7MHkwCQYDVR0TBAIwADAsBglghkgBhvhC
AQ0EHxYdT3BlblNTTCBHZW5lcmF0ZWQgQ2VydGlmaWNhdGUwHQYDVR0OBBYEFCNu
vT3hokfaZdPnaIhxcZ90VJrHMB8GA1UdIwQYMBaAFChQipTNlm4XK1DP5HqIFH08
/PEDMA0GCSqGSIb3DQEBBQUAA4GBAB4kb2KgpmBnJlbencMfBmSqr0DRuPrQDmcY
XjXzhy/jMIeY7YPtgadm4Lf9jtU92T7ZCTLstMy1M0Wm0htTrsbxGpLn1aHIXcLE
fkqXAxQ/eI0Z4xeMNBaXXH9D2Mat5vD4AWjMK0Ti6Sj0LxfMOaRmAnBiD6i42hH/
ajt4jgJb
-----END CERTIFICATE-----
